; Function Attrs: mustprogress uwtable
define noundef i64 @_ZNK6google8protobuf6Option12ByteSizeLongEv(ptr noundef nonnull align 8 dereferenceable(40) %this) unnamed_addr #3 align 2 personality ptr @__gxx_personality_v0 {
entry:
  %name_.i = getelementptr inbounds i8, ptr %this, i64 24
  %0 = load ptr, ptr %name_.i, align 8
  %1 = ptrtoint ptr %0 to i64
  %and.i.i = and i64 %1, -4
  %2 = inttoptr i64 %and.i.i to ptr
  %call2 = tail call noundef zeroext i1 @_ZNKSt7__cxx1112basic_stringIcSt11char_traitsIcESaIcEE5emptyEv(ptr noundef nonnull align 8 dereferenceable(32) %2) #16
  br i1 %call2, label %if.end, label %if.then

if.then:                                          ; preds = %entry
  %3 = load ptr, ptr %name_.i, align 8
  %4 = ptrtoint ptr %3 to i64
  %and.i.i4 = and i64 %4, -4
  %5 = inttoptr i64 %and.i.i4 to ptr
  %call.i = tail call noundef i64 @_ZNKSt7__cxx1112basic_stringIcSt11char_traitsIcESaIcEE4sizeEv(ptr noundef nonnull align 8 dereferenceable(32) %5) #16
  %conv.i.i = trunc i64 %call.i to i32
  %or.i.i.i = or i32 %conv.i.i, 1
  %6 = tail call noundef i32 @llvm.ctlz.i32(i32 %or.i.i.i, i1 true), !range !11
  %sub.i.i.i = xor i32 %6, 31
  %mul.i.i.i = mul nuw nsw i32 %sub.i.i.i, 9
  %add.i.i.i = add nuw nsw i32 %mul.i.i.i, 73
  %div1.i.i.i = lshr i32 %add.i.i.i, 6
  %conv.i.i.i = zext nneg i32 %div1.i.i.i to i64
  %add.i.i = add i64 %call.i, 1
  %add = add i64 %add.i.i, %conv.i.i.i
  br label %if.end

if.end:                                           ; preds = %if.then, %entry
  %total_size.0 = phi i64 [ 0, %entry ], [ %add, %if.then ]
  %7 = getelementptr inbounds i8, ptr %this, i64 16
  %8 = load i32, ptr %7, align 8
  %and = and i32 %8, 1
  %tobool.not = icmp eq i32 %and, 0
  br i1 %tobool.not, label %if.end11, label %if.then7

if.then7:                                         ; preds = %if.end
  %value_ = getelementptr inbounds i8, ptr %this, i64 32
  %9 = load ptr, ptr %value_, align 8
  %call.i5 = tail call noundef i64 @_ZNK6google8protobuf3Any12ByteSizeLongEv(ptr noundef nonnull align 8 dereferenceable(56) %9)
  %conv.i.i6 = trunc i64 %call.i5 to i32
  %or.i.i.i7 = or i32 %conv.i.i6, 1
  %10 = tail call noundef i32 @llvm.ctlz.i32(i32 %or.i.i.i7, i1 true), !range !11
  %sub.i.i.i8 = xor i32 %10, 31
  %mul.i.i.i9 = mul nuw nsw i32 %sub.i.i.i8, 9
  %add.i.i.i10 = add nuw nsw i32 %mul.i.i.i9, 73
  %div1.i.i.i11 = lshr i32 %add.i.i.i10, 6
  %conv.i.i.i12 = zext nneg i32 %div1.i.i.i11 to i64
  %add.i.i13 = add i64 %total_size.0, 1
  %add9 = add i64 %add.i.i13, %call.i5
  %add10 = add i64 %add9, %conv.i.i.i12
  br label %if.end11

if.end11:                                         ; preds = %if.then7, %if.end
  %total_size.1 = phi i64 [ %add10, %if.then7 ], [ %total_size.0, %if.end ]
  %_cached_size_ = getelementptr inbounds i8, ptr %this, i64 20
  %call12 = tail call noundef i64 @_ZNK6google8protobuf7Message29MaybeComputeUnknownFieldsSizeEmPNS0_8internal10CachedSizeE(ptr noundef nonnull align 8 dereferenceable(16) %this, i64 noundef %total_size.1, ptr noundef nonnull %_cached_size_)
  ret i64 %call12
}